
a.out:     file format elf32-littleriscv


Disassembly of section .text:

00010074 <_start>:
   10074:	2ec000ef          	jal	ra,10360 <main>
   10078:	00100073          	ebreak

0001007c <write>:
   1007c:	fd010113          	addi	sp,sp,-48
   10080:	02812623          	sw	s0,44(sp)
   10084:	03010413          	addi	s0,sp,48
   10088:	fca42e23          	sw	a0,-36(s0)
   1008c:	fcb42c23          	sw	a1,-40(s0)
   10090:	fcc42a23          	sw	a2,-44(s0)
   10094:	fdc42783          	lw	a5,-36(s0)
   10098:	fd842703          	lw	a4,-40(s0)
   1009c:	fd442683          	lw	a3,-44(s0)
   100a0:	04000893          	li	a7,64
   100a4:	00078513          	mv	a0,a5
   100a8:	00070593          	mv	a1,a4
   100ac:	00068613          	mv	a2,a3
   100b0:	00000073          	ecall
   100b4:	00050793          	mv	a5,a0
   100b8:	fef42623          	sw	a5,-20(s0)
   100bc:	fec42783          	lw	a5,-20(s0)
   100c0:	00078513          	mv	a0,a5
   100c4:	02c12403          	lw	s0,44(sp)
   100c8:	03010113          	addi	sp,sp,48
   100cc:	00008067          	ret

000100d0 <strlen>:
   100d0:	fd010113          	addi	sp,sp,-48
   100d4:	02812623          	sw	s0,44(sp)
   100d8:	03010413          	addi	s0,sp,48
   100dc:	fca42e23          	sw	a0,-36(s0)
   100e0:	fe042623          	sw	zero,-20(s0)
   100e4:	fdc42783          	lw	a5,-36(s0)
   100e8:	fef42423          	sw	a5,-24(s0)
   100ec:	01c0006f          	j	10108 <strlen+0x38>
   100f0:	fec42783          	lw	a5,-20(s0)
   100f4:	00178793          	addi	a5,a5,1
   100f8:	fef42623          	sw	a5,-20(s0)
   100fc:	fe842783          	lw	a5,-24(s0)
   10100:	00178793          	addi	a5,a5,1
   10104:	fef42423          	sw	a5,-24(s0)
   10108:	fe842783          	lw	a5,-24(s0)
   1010c:	0007c783          	lbu	a5,0(a5)
   10110:	fe0790e3          	bnez	a5,100f0 <strlen+0x20>
   10114:	fec42783          	lw	a5,-20(s0)
   10118:	00078513          	mv	a0,a5
   1011c:	02c12403          	lw	s0,44(sp)
   10120:	03010113          	addi	sp,sp,48
   10124:	00008067          	ret

00010128 <puts>:
   10128:	fe010113          	addi	sp,sp,-32
   1012c:	00112e23          	sw	ra,28(sp)
   10130:	00812c23          	sw	s0,24(sp)
   10134:	02010413          	addi	s0,sp,32
   10138:	fea42623          	sw	a0,-20(s0)
   1013c:	fec42503          	lw	a0,-20(s0)
   10140:	f91ff0ef          	jal	ra,100d0 <strlen>
   10144:	00050793          	mv	a5,a0
   10148:	00078613          	mv	a2,a5
   1014c:	fec42583          	lw	a1,-20(s0)
   10150:	00100513          	li	a0,1
   10154:	f29ff0ef          	jal	ra,1007c <write>
   10158:	00050793          	mv	a5,a0
   1015c:	00078513          	mv	a0,a5
   10160:	01c12083          	lw	ra,28(sp)
   10164:	01812403          	lw	s0,24(sp)
   10168:	02010113          	addi	sp,sp,32
   1016c:	00008067          	ret

00010170 <reverse>:
   10170:	fd010113          	addi	sp,sp,-48
   10174:	02112623          	sw	ra,44(sp)
   10178:	02812423          	sw	s0,40(sp)
   1017c:	03010413          	addi	s0,sp,48
   10180:	fca42e23          	sw	a0,-36(s0)
   10184:	fe042623          	sw	zero,-20(s0)
   10188:	fdc42503          	lw	a0,-36(s0)
   1018c:	f45ff0ef          	jal	ra,100d0 <strlen>
   10190:	00050793          	mv	a5,a0
   10194:	fff78793          	addi	a5,a5,-1
   10198:	fef42423          	sw	a5,-24(s0)
   1019c:	0640006f          	j	10200 <reverse+0x90>
   101a0:	fdc42703          	lw	a4,-36(s0)
   101a4:	fec42783          	lw	a5,-20(s0)
   101a8:	00f707b3          	add	a5,a4,a5
   101ac:	0007c783          	lbu	a5,0(a5)
   101b0:	fef403a3          	sb	a5,-25(s0)
   101b4:	fdc42703          	lw	a4,-36(s0)
   101b8:	fe842783          	lw	a5,-24(s0)
   101bc:	00f70733          	add	a4,a4,a5
   101c0:	fdc42683          	lw	a3,-36(s0)
   101c4:	fec42783          	lw	a5,-20(s0)
   101c8:	00f687b3          	add	a5,a3,a5
   101cc:	00074703          	lbu	a4,0(a4)
   101d0:	00e78023          	sb	a4,0(a5)
   101d4:	fdc42703          	lw	a4,-36(s0)
   101d8:	fe842783          	lw	a5,-24(s0)
   101dc:	00f707b3          	add	a5,a4,a5
   101e0:	fe744703          	lbu	a4,-25(s0)
   101e4:	00e78023          	sb	a4,0(a5)
   101e8:	fec42783          	lw	a5,-20(s0)
   101ec:	00178793          	addi	a5,a5,1
   101f0:	fef42623          	sw	a5,-20(s0)
   101f4:	fe842783          	lw	a5,-24(s0)
   101f8:	fff78793          	addi	a5,a5,-1
   101fc:	fef42423          	sw	a5,-24(s0)
   10200:	fec42703          	lw	a4,-20(s0)
   10204:	fe842783          	lw	a5,-24(s0)
   10208:	f8f76ce3          	bltu	a4,a5,101a0 <reverse+0x30>
   1020c:	00000013          	nop
   10210:	00000013          	nop
   10214:	02c12083          	lw	ra,44(sp)
   10218:	02812403          	lw	s0,40(sp)
   1021c:	03010113          	addi	sp,sp,48
   10220:	00008067          	ret

00010224 <itoa>:
   10224:	fd010113          	addi	sp,sp,-48
   10228:	02112623          	sw	ra,44(sp)
   1022c:	02812423          	sw	s0,40(sp)
   10230:	03010413          	addi	s0,sp,48
   10234:	fca42e23          	sw	a0,-36(s0)
   10238:	fcb42c23          	sw	a1,-40(s0)
   1023c:	fdc42783          	lw	a5,-36(s0)
   10240:	02079263          	bnez	a5,10264 <itoa+0x40>
   10244:	fd842783          	lw	a5,-40(s0)
   10248:	03000713          	li	a4,48
   1024c:	00e78023          	sb	a4,0(a5)
   10250:	fd842783          	lw	a5,-40(s0)
   10254:	00178793          	addi	a5,a5,1
   10258:	00078023          	sb	zero,0(a5)
   1025c:	fd842783          	lw	a5,-40(s0)
   10260:	0ec0006f          	j	1034c <itoa+0x128>
   10264:	fe042623          	sw	zero,-20(s0)
   10268:	fdc42783          	lw	a5,-36(s0)
   1026c:	0007dc63          	bgez	a5,10284 <itoa+0x60>
   10270:	fdc42783          	lw	a5,-36(s0)
   10274:	40f007b3          	neg	a5,a5
   10278:	fcf42e23          	sw	a5,-36(s0)
   1027c:	00100793          	li	a5,1
   10280:	fef42623          	sw	a5,-20(s0)
   10284:	fe042423          	sw	zero,-24(s0)
   10288:	0780006f          	j	10300 <itoa+0xdc>
   1028c:	fdc42783          	lw	a5,-36(s0)
   10290:	00f7f793          	andi	a5,a5,15
   10294:	fef42223          	sw	a5,-28(s0)
   10298:	fe442703          	lw	a4,-28(s0)
   1029c:	00900793          	li	a5,9
   102a0:	02e7c463          	blt	a5,a4,102c8 <itoa+0xa4>
   102a4:	fe442783          	lw	a5,-28(s0)
   102a8:	0ff7f713          	andi	a4,a5,255
   102ac:	fe842783          	lw	a5,-24(s0)
   102b0:	fd842683          	lw	a3,-40(s0)
   102b4:	00f687b3          	add	a5,a3,a5
   102b8:	03070713          	addi	a4,a4,48
   102bc:	0ff77713          	andi	a4,a4,255
   102c0:	00e78023          	sb	a4,0(a5)
   102c4:	0240006f          	j	102e8 <itoa+0xc4>
   102c8:	fe442783          	lw	a5,-28(s0)
   102cc:	0ff7f713          	andi	a4,a5,255
   102d0:	fe842783          	lw	a5,-24(s0)
   102d4:	fd842683          	lw	a3,-40(s0)
   102d8:	00f687b3          	add	a5,a3,a5
   102dc:	06170713          	addi	a4,a4,97
   102e0:	0ff77713          	andi	a4,a4,255
   102e4:	00e78023          	sb	a4,0(a5)
   102e8:	fe842783          	lw	a5,-24(s0)
   102ec:	00178793          	addi	a5,a5,1
   102f0:	fef42423          	sw	a5,-24(s0)
   102f4:	fdc42783          	lw	a5,-36(s0)
   102f8:	4047d793          	srai	a5,a5,0x4
   102fc:	fcf42e23          	sw	a5,-36(s0)
   10300:	fdc42783          	lw	a5,-36(s0)
   10304:	f80794e3          	bnez	a5,1028c <itoa+0x68>
   10308:	fec42783          	lw	a5,-20(s0)
   1030c:	02078263          	beqz	a5,10330 <itoa+0x10c>
   10310:	fe842783          	lw	a5,-24(s0)
   10314:	fd842703          	lw	a4,-40(s0)
   10318:	00f707b3          	add	a5,a4,a5
   1031c:	02d00713          	li	a4,45
   10320:	00e78023          	sb	a4,0(a5)
   10324:	fe842783          	lw	a5,-24(s0)
   10328:	00178793          	addi	a5,a5,1
   1032c:	fef42423          	sw	a5,-24(s0)
   10330:	fe842783          	lw	a5,-24(s0)
   10334:	fd842703          	lw	a4,-40(s0)
   10338:	00f707b3          	add	a5,a4,a5
   1033c:	00078023          	sb	zero,0(a5)
   10340:	fd842503          	lw	a0,-40(s0)
   10344:	e2dff0ef          	jal	ra,10170 <reverse>
   10348:	fd842783          	lw	a5,-40(s0)
   1034c:	00078513          	mv	a0,a5
   10350:	02c12083          	lw	ra,44(sp)
   10354:	02812403          	lw	s0,40(sp)
   10358:	03010113          	addi	sp,sp,48
   1035c:	00008067          	ret

00010360 <main>:
   10360:	ee010113          	addi	sp,sp,-288
   10364:	10112e23          	sw	ra,284(sp)
   10368:	10812c23          	sw	s0,280(sp)
   1036c:	12010413          	addi	s0,sp,288
   10370:	000107b7          	lui	a5,0x10
   10374:	3e878513          	addi	a0,a5,1000 # 103e8 <main+0x88>
   10378:	db1ff0ef          	jal	ra,10128 <puts>
   1037c:	00100793          	li	a5,1
   10380:	fef42623          	sw	a5,-20(s0)
   10384:	00200793          	li	a5,2
   10388:	fef42423          	sw	a5,-24(s0)
   1038c:	fec42703          	lw	a4,-20(s0)
   10390:	fe842783          	lw	a5,-24(s0)
   10394:	00f707b3          	add	a5,a4,a5
   10398:	fef42223          	sw	a5,-28(s0)
   1039c:	000107b7          	lui	a5,0x10
   103a0:	40478513          	addi	a0,a5,1028 # 10404 <main+0xa4>
   103a4:	d85ff0ef          	jal	ra,10128 <puts>
   103a8:	ee440793          	addi	a5,s0,-284
   103ac:	00078593          	mv	a1,a5
   103b0:	fe442503          	lw	a0,-28(s0)
   103b4:	e71ff0ef          	jal	ra,10224 <itoa>
   103b8:	00050793          	mv	a5,a0
   103bc:	00078513          	mv	a0,a5
   103c0:	d69ff0ef          	jal	ra,10128 <puts>
   103c4:	000107b7          	lui	a5,0x10
   103c8:	41078513          	addi	a0,a5,1040 # 10410 <main+0xb0>
   103cc:	d5dff0ef          	jal	ra,10128 <puts>
   103d0:	00000793          	li	a5,0
   103d4:	00078513          	mv	a0,a5
   103d8:	11c12083          	lw	ra,284(sp)
   103dc:	11812403          	lw	s0,280(sp)
   103e0:	12010113          	addi	sp,sp,288
   103e4:	00008067          	ret
